; Function Attrs: nounwind uwtable
define internal fastcc void @Cba_NtkSetMap(ptr captures(none) %.0.val, i32 noundef %0, i32 noundef %1) unnamed_addr #0 {
  %3 = getelementptr inbounds nuw i8, ptr %.0.val, i64 48
  %4 = add nsw i32 %0, 1
  tail call fastcc void @Vec_IntFillExtra(ptr noundef nonnull %3, i32 noundef %4)
  %5 = getelementptr i8, ptr %.0.val, i64 56
  %.val.i.i = load ptr, ptr %5, align 8
  %6 = sext i32 %0 to i64
  %7 = getelementptr inbounds i32, ptr %.val.i.i, i64 %6
  store i32 %1, ptr %7, align 4
  %8 = getelementptr inbounds nuw i8, ptr %.0.val, i64 80
  %9 = getelementptr inbounds nuw i8, ptr %.0.val, i64 84
  %10 = load i32, ptr %9, align 4
  %11 = load i32, ptr %8, align 8
  %12 = icmp eq i32 %10, %11
  br i1 %12, label %13, label %.Vec_IntGrow.exit10_crit_edge.i.i

.Vec_IntGrow.exit10_crit_edge.i.i:                ; preds = %2
  %.phi.trans.insert.i.i = getelementptr inbounds nuw i8, ptr %.0.val, i64 88
  %.pre.i.i = load ptr, ptr %.phi.trans.insert.i.i, align 8
  br label %Cba_ManSetMap.exit

13:                                               ; preds = %2
  %14 = icmp slt i32 %10, 16
  br i1 %14, label %15, label %23

15:                                               ; preds = %13
  %16 = getelementptr inbounds nuw i8, ptr %.0.val, i64 88
  %17 = load ptr, ptr %16, align 8
  %.not9.i.i.i = icmp eq ptr %17, null
  br i1 %.not9.i.i.i, label %20, label %18

18:                                               ; preds = %15
  %19 = tail call dereferenceable_or_null(64) ptr @realloc(ptr noundef nonnull %17, i64 noundef 64) #29
  br label %Vec_IntGrow.exit.i.i

20:                                               ; preds = %15
  %21 = tail call noalias dereferenceable_or_null(64) ptr @malloc(i64 noundef 64) #30
  br label %Vec_IntGrow.exit.i.i

Vec_IntGrow.exit.i.i:                             ; preds = %20, %18
  %22 = phi ptr [ %19, %18 ], [ %21, %20 ]
  store ptr %22, ptr %16, align 8
  store i32 16, ptr %8, align 8
  br label %Cba_ManSetMap.exit

23:                                               ; preds = %13
  %24 = shl nuw nsw i32 %10, 1
  %25 = getelementptr inbounds nuw i8, ptr %.0.val, i64 88
  %26 = load ptr, ptr %25, align 8
  %.not9.i9.i.i = icmp eq ptr %26, null
  %27 = zext nneg i32 %24 to i64
  %28 = shl nuw nsw i64 %27, 2
  br i1 %.not9.i9.i.i, label %31, label %29

29:                                               ; preds = %23
  %30 = tail call ptr @realloc(ptr noundef nonnull %26, i64 noundef %28) #29
  br label %33

31:                                               ; preds = %23
  %32 = tail call noalias ptr @malloc(i64 noundef %28) #30
  br label %33

33:                                               ; preds = %31, %29
  %34 = phi ptr [ %30, %29 ], [ %32, %31 ]
  store ptr %34, ptr %25, align 8
  store i32 %24, ptr %8, align 8
  br label %Cba_ManSetMap.exit

Cba_ManSetMap.exit:                               ; preds = %.Vec_IntGrow.exit10_crit_edge.i.i, %Vec_IntGrow.exit.i.i, %33
  %35 = phi ptr [ %.pre.i.i, %.Vec_IntGrow.exit10_crit_edge.i.i ], [ %34, %33 ], [ %22, %Vec_IntGrow.exit.i.i ]
  %36 = load i32, ptr %9, align 4
  %37 = add nsw i32 %36, 1
  store i32 %37, ptr %9, align 4
  %38 = sext i32 %36 to i64
  %39 = getelementptr inbounds i32, ptr %35, i64 %38
  store i32 %0, ptr %39, align 4
  ret void
}